target datalayout = "e-m:e-p270:32:32-p271:32:32-p272:64:64-i64:64-i128:128-f80:128-n8:16:32:64-S128"
target triple = "x86_64-pc-linux-gnu"

%struct.lean_array_object = type { %struct.lean_object, i64, i64, [0 x ptr] }
%struct.lean_object = type { i32, i32 }

; Function Attrs: inlinehint nounwind uwtable
define internal zeroext i1 @lean_is_st(ptr noundef %0) #1 {
  %2 = alloca ptr, align 8
  store ptr %0, ptr %2, align 8, !tbaa !4
  %3 = load ptr, ptr %2, align 8, !tbaa !4
  %4 = getelementptr inbounds nuw %struct.lean_object, ptr %3, i32 0, i32 0
  %5 = load i32, ptr %4, align 4, !tbaa !15
  %6 = icmp sgt i32 %5, 0
  ret i1 %6
}

; Function Attrs: alwaysinline nounwind uwtable
define internal void @lean_dec_ref(ptr noundef %0) #0 {
  %2 = alloca ptr, align 8
  store ptr %0, ptr %2, align 8, !tbaa !4
  %3 = load ptr, ptr %2, align 8, !tbaa !4
  %4 = getelementptr inbounds nuw %struct.lean_object, ptr %3, i32 0, i32 0
  %5 = load i32, ptr %4, align 4, !tbaa !15
  %6 = icmp sgt i32 %5, 1
  %7 = zext i1 %6 to i32
  %8 = sext i32 %7 to i64
  %9 = call i64 @llvm.expect.i64(i64 %8, i64 1)
  %10 = icmp ne i64 %9, 0
  br i1 %10, label %11, label %16

11:                                               ; preds = %1
  %12 = load ptr, ptr %2, align 8, !tbaa !4
  %13 = getelementptr inbounds nuw %struct.lean_object, ptr %12, i32 0, i32 0
  %14 = load i32, ptr %13, align 4, !tbaa !15
  %15 = add i32 %14, -1
  store i32 %15, ptr %13, align 4, !tbaa !15
  br label %24

16:                                               ; preds = %1
  %17 = load ptr, ptr %2, align 8, !tbaa !4
  %18 = getelementptr inbounds nuw %struct.lean_object, ptr %17, i32 0, i32 0
  %19 = load i32, ptr %18, align 4, !tbaa !15
  %20 = icmp ne i32 %19, 0
  br i1 %20, label %21, label %23

21:                                               ; preds = %16
  %22 = load ptr, ptr %2, align 8, !tbaa !4
  call void @lean_dec_ref_cold(ptr noundef %22)
  br label %23

23:                                               ; preds = %21, %16
  br label %24

24:                                               ; preds = %23, %11
  ret void
}

; Function Attrs: inlinehint nounwind uwtable
define internal ptr @lean_copy_array(ptr noundef %0) #1 {
  %2 = alloca ptr, align 8
  store ptr %0, ptr %2, align 8, !tbaa !4
  %3 = load ptr, ptr %2, align 8, !tbaa !4
  %4 = call ptr @lean_copy_expand_array(ptr noundef %3, i1 noundef zeroext false)
  ret ptr %4
}

; Function Attrs: inlinehint nounwind uwtable
define internal zeroext i1 @lean_is_exclusive(ptr noundef %0) #1 {
  %2 = alloca i1, align 1
  %3 = alloca ptr, align 8
  store ptr %0, ptr %3, align 8, !tbaa !4
  %4 = load ptr, ptr %3, align 8, !tbaa !4
  %5 = call zeroext i1 @lean_is_st(ptr noundef %4)
  %6 = zext i1 %5 to i64
  %7 = call i64 @llvm.expect.i64(i64 %6, i64 1)
  %8 = icmp ne i64 %7, 0
  br i1 %8, label %9, label %14

9:                                                ; preds = %1
  %10 = load ptr, ptr %3, align 8, !tbaa !4
  %11 = getelementptr inbounds nuw %struct.lean_object, ptr %10, i32 0, i32 0
  %12 = load i32, ptr %11, align 4, !tbaa !15
  %13 = icmp eq i32 %12, 1
  store i1 %13, ptr %2, align 1
  br label %15

14:                                               ; preds = %1
  store i1 false, ptr %2, align 1
  br label %15

15:                                               ; preds = %14, %9
  %16 = load i1, ptr %2, align 1
  ret i1 %16
}

; Function Attrs: inlinehint nounwind uwtable
define internal ptr @lean_box(i64 noundef %0) #1 {
  %2 = alloca i64, align 8
  store i64 %0, ptr %2, align 8, !tbaa !8
  %3 = load i64, ptr %2, align 8, !tbaa !8
  %4 = shl i64 %3, 1
  %5 = or i64 %4, 1
  %6 = inttoptr i64 %5 to ptr
  ret ptr %6
}

; Function Attrs: inlinehint nounwind uwtable
define internal void @lean_inc_ref(ptr noundef %0) #1 {
  %2 = alloca ptr, align 8
  store ptr %0, ptr %2, align 8, !tbaa !4
  %3 = load ptr, ptr %2, align 8, !tbaa !4
  %4 = call zeroext i1 @lean_is_st(ptr noundef %3)
  %5 = zext i1 %4 to i64
  %6 = call i64 @llvm.expect.i64(i64 %5, i64 1)
  %7 = icmp ne i64 %6, 0
  br i1 %7, label %8, label %13

8:                                                ; preds = %1
  %9 = load ptr, ptr %2, align 8, !tbaa !4
  %10 = getelementptr inbounds nuw %struct.lean_object, ptr %9, i32 0, i32 0
  %11 = load i32, ptr %10, align 4, !tbaa !15
  %12 = add i32 %11, 1
  store i32 %12, ptr %10, align 4, !tbaa !15
  br label %21

13:                                               ; preds = %1
  %14 = load ptr, ptr %2, align 8, !tbaa !4
  %15 = getelementptr inbounds nuw %struct.lean_object, ptr %14, i32 0, i32 0
  %16 = load i32, ptr %15, align 4, !tbaa !15
  %17 = icmp ne i32 %16, 0
  br i1 %17, label %18, label %20

18:                                               ; preds = %13
  %19 = load ptr, ptr %2, align 8, !tbaa !4
  call void @lean_inc_ref_cold(ptr noundef %19)
  br label %20

20:                                               ; preds = %18, %13
  br label %21

21:                                               ; preds = %20, %8
  ret void
}

; Function Attrs: alwaysinline nounwind uwtable
define internal zeroext i1 @lean_is_scalar(ptr noundef %0) #0 {
  %2 = alloca ptr, align 8
  store ptr %0, ptr %2, align 8, !tbaa !4
  %3 = load ptr, ptr %2, align 8, !tbaa !4
  %4 = ptrtoint ptr %3 to i64
  %5 = and i64 %4, 1
  %6 = icmp eq i64 %5, 1
  ret i1 %6
}

; Function Attrs: inlinehint nounwind uwtable
define internal ptr @lean_to_array(ptr noundef %0) #1 {
  %2 = alloca ptr, align 8
  store ptr %0, ptr %2, align 8, !tbaa !4
  %3 = load ptr, ptr %2, align 8, !tbaa !4
  ret ptr %3
}

; Function Attrs: alwaysinline nounwind uwtable
define internal void @lean_dec(ptr noundef %0) #0 {
  %2 = alloca ptr, align 8
  store ptr %0, ptr %2, align 8, !tbaa !4
  %3 = load ptr, ptr %2, align 8, !tbaa !4
  %4 = call zeroext i1 @lean_is_scalar(ptr noundef %3)
  br i1 %4, label %7, label %5

5:                                                ; preds = %1
  %6 = load ptr, ptr %2, align 8, !tbaa !4
  call void @lean_dec_ref(ptr noundef %6)
  br label %7

7:                                                ; preds = %5, %1
  ret void
}

; Function Attrs: inlinehint nounwind uwtable
define internal ptr @lean_array_cptr(ptr noundef %0) #1 {
  %2 = alloca ptr, align 8
  store ptr %0, ptr %2, align 8, !tbaa !4
  %3 = load ptr, ptr %2, align 8, !tbaa !4
  %4 = call ptr @lean_to_array(ptr noundef %3)
  %5 = getelementptr inbounds nuw %struct.lean_array_object, ptr %4, i32 0, i32 3
  %6 = getelementptr inbounds [0 x ptr], ptr %5, i64 0, i64 0
  ret ptr %6
}

; Function Attrs: inlinehint nounwind uwtable
define internal ptr @lean_ensure_exclusive_array(ptr noundef %0) #1 {
  %2 = alloca ptr, align 8
  %3 = alloca ptr, align 8
  store ptr %0, ptr %3, align 8, !tbaa !4
  %4 = load ptr, ptr %3, align 8, !tbaa !4
  %5 = call zeroext i1 @lean_is_exclusive(ptr noundef %4)
  br i1 %5, label %6, label %8

6:                                                ; preds = %1
  %7 = load ptr, ptr %3, align 8, !tbaa !4
  store ptr %7, ptr %2, align 8
  br label %11

8:                                                ; preds = %1
  %9 = load ptr, ptr %3, align 8, !tbaa !4
  %10 = call ptr @lean_copy_array(ptr noundef %9)
  store ptr %10, ptr %2, align 8
  br label %11

11:                                               ; preds = %8, %6
  %12 = load ptr, ptr %2, align 8
  ret ptr %12
}

; Function Attrs: inlinehint nounwind uwtable
define internal ptr @lean_usize_to_nat(i64 noundef %0) #1 {
  %2 = alloca ptr, align 8
  %3 = alloca i64, align 8
  store i64 %0, ptr %3, align 8, !tbaa !8
  %4 = load i64, ptr %3, align 8, !tbaa !8
  %5 = icmp ule i64 %4, 9223372036854775807
  %6 = zext i1 %5 to i32
  %7 = sext i32 %6 to i64
  %8 = call i64 @llvm.expect.i64(i64 %7, i64 1)
  %9 = icmp ne i64 %8, 0
  br i1 %9, label %10, label %13

10:                                               ; preds = %1
  %11 = load i64, ptr %3, align 8, !tbaa !8
  %12 = call ptr @lean_box(i64 noundef %11)
  store ptr %12, ptr %2, align 8
  br label %16

13:                                               ; preds = %1
  %14 = load i64, ptr %3, align 8, !tbaa !8
  %15 = call ptr @lean_big_usize_to_nat(i64 noundef %14)
  store ptr %15, ptr %2, align 8
  br label %16

16:                                               ; preds = %13, %10
  %17 = load ptr, ptr %2, align 8
  ret ptr %17
}

; Function Attrs: alwaysinline nounwind uwtable
define internal void @lean_inc(ptr noundef %0) #0 {
  %2 = alloca ptr, align 8
  store ptr %0, ptr %2, align 8, !tbaa !4
  %3 = load ptr, ptr %2, align 8, !tbaa !4
  %4 = call zeroext i1 @lean_is_scalar(ptr noundef %3)
  br i1 %4, label %7, label %5

5:                                                ; preds = %1
  %6 = load ptr, ptr %2, align 8, !tbaa !4
  call void @lean_inc_ref(ptr noundef %6)
  br label %7

7:                                                ; preds = %5, %1
  ret void
}

; Function Attrs: inlinehint nounwind uwtable
define internal ptr @lean_array_get_core(ptr noundef %0, i64 noundef %1) #1 {
  %3 = alloca ptr, align 8
  %4 = alloca i64, align 8
  store ptr %0, ptr %3, align 8, !tbaa !4
  store i64 %1, ptr %4, align 8, !tbaa !8
  %5 = load ptr, ptr %3, align 8, !tbaa !4
  %6 = call ptr @lean_to_array(ptr noundef %5)
  %7 = getelementptr inbounds nuw %struct.lean_array_object, ptr %6, i32 0, i32 3
  %8 = load i64, ptr %4, align 8, !tbaa !8
  %9 = getelementptr inbounds nuw [0 x ptr], ptr %7, i64 0, i64 %8
  %10 = load ptr, ptr %9, align 8, !tbaa !4
  ret ptr %10
}

; Function Attrs: inlinehint nounwind uwtable
define internal i64 @lean_usize_add(i64 noundef %0, i64 noundef %1) #1 {
  %3 = alloca i64, align 8
  %4 = alloca i64, align 8
  store i64 %0, ptr %3, align 8, !tbaa !8
  store i64 %1, ptr %4, align 8, !tbaa !8
  %5 = load i64, ptr %3, align 8, !tbaa !8
  %6 = load i64, ptr %4, align 8, !tbaa !8
  %7 = add i64 %5, %6
  ret i64 %7
}

; Function Attrs: inlinehint nounwind uwtable
define internal ptr @lean_array_uset(ptr noundef %0, i64 noundef %1, ptr noundef %2) #1 {
  %4 = alloca ptr, align 8
  %5 = alloca i64, align 8
  %6 = alloca ptr, align 8
  %7 = alloca ptr, align 8
  %8 = alloca ptr, align 8
  store ptr %0, ptr %4, align 8, !tbaa !4
  store i64 %1, ptr %5, align 8, !tbaa !8
  store ptr %2, ptr %6, align 8, !tbaa !4
  call void @llvm.lifetime.start.p0(i64 8, ptr %7) #7
  %9 = load ptr, ptr %4, align 8, !tbaa !4
  %10 = call ptr @lean_ensure_exclusive_array(ptr noundef %9)
  store ptr %10, ptr %7, align 8, !tbaa !4
  call void @llvm.lifetime.start.p0(i64 8, ptr %8) #7
  %11 = load ptr, ptr %7, align 8, !tbaa !4
  %12 = call ptr @lean_array_cptr(ptr noundef %11)
  %13 = load i64, ptr %5, align 8, !tbaa !8
  %14 = getelementptr inbounds nuw ptr, ptr %12, i64 %13
  store ptr %14, ptr %8, align 8, !tbaa !10
  %15 = load ptr, ptr %8, align 8, !tbaa !10
  %16 = load ptr, ptr %15, align 8, !tbaa !4
  call void @lean_dec(ptr noundef %16)
  %17 = load ptr, ptr %6, align 8, !tbaa !4
  %18 = load ptr, ptr %8, align 8, !tbaa !10
  store ptr %17, ptr %18, align 8, !tbaa !4
  %19 = load ptr, ptr %7, align 8, !tbaa !4
  call void @llvm.lifetime.end.p0(i64 8, ptr %8) #7
  call void @llvm.lifetime.end.p0(i64 8, ptr %7) #7
  ret ptr %19
}

; Function Attrs: inlinehint nounwind uwtable
define internal ptr @lean_unsigned_to_nat(i32 noundef %0) #1 {
  %2 = alloca i32, align 4
  store i32 %0, ptr %2, align 4, !tbaa !13
  %3 = load i32, ptr %2, align 4, !tbaa !13
  %4 = zext i32 %3 to i64
  %5 = call ptr @lean_usize_to_nat(i64 noundef %4)
  ret ptr %5
}

; Function Attrs: inlinehint nounwind uwtable
define internal ptr @lean_array_uget(ptr noundef %0, i64 noundef %1) #1 {
  %3 = alloca ptr, align 8
  %4 = alloca i64, align 8
  %5 = alloca ptr, align 8
  store ptr %0, ptr %3, align 8, !tbaa !4
  store i64 %1, ptr %4, align 8, !tbaa !8
  call void @llvm.lifetime.start.p0(i64 8, ptr %5) #7
  %6 = load ptr, ptr %3, align 8, !tbaa !4
  %7 = load i64, ptr %4, align 8, !tbaa !8
  %8 = call ptr @lean_array_get_core(ptr noundef %6, i64 noundef %7)
  store ptr %8, ptr %5, align 8, !tbaa !4
  %9 = load ptr, ptr %5, align 8, !tbaa !4
  call void @lean_inc(ptr noundef %9)
  %10 = load ptr, ptr %5, align 8, !tbaa !4
  call void @llvm.lifetime.end.p0(i64 8, ptr %5) #7
  ret ptr %10
}

; Function Attrs: inlinehint nounwind uwtable
define internal zeroext i8 @lean_usize_dec_lt(i64 noundef %0, i64 noundef %1) #1 {
  %3 = alloca i64, align 8
  %4 = alloca i64, align 8
  store i64 %0, ptr %3, align 8, !tbaa !8
  store i64 %1, ptr %4, align 8, !tbaa !8
  %5 = load i64, ptr %3, align 8, !tbaa !8
  %6 = load i64, ptr %4, align 8, !tbaa !8
  %7 = icmp ult i64 %5, %6
  %8 = zext i1 %7 to i32
  %9 = trunc i32 %8 to i8
  ret i8 %9
}

; Function Attrs: nounwind uwtable
define ptr @l_Array_mapMUnsafe_map___at___private_Init_TacticsExtra_0__Lean_Parser_Tactic_expandIfThenElse___spec__1(i64 noundef %0, i64 noundef %1, ptr noundef %2) #2 {
  %4 = alloca ptr, align 8
  %5 = alloca i64, align 8
  %6 = alloca i64, align 8
  %7 = alloca ptr, align 8
  %8 = alloca i8, align 1
  %9 = alloca i32, align 4
  %10 = alloca ptr, align 8
  %11 = alloca ptr, align 8
  %12 = alloca ptr, align 8
  %13 = alloca i64, align 8
  %14 = alloca i64, align 8
  %15 = alloca ptr, align 8
  store i64 %0, ptr %5, align 8, !tbaa !8
  store i64 %1, ptr %6, align 8, !tbaa !8
  store ptr %2, ptr %7, align 8, !tbaa !4
  br label %16

16:                                               ; preds = %43, %3
  call void @llvm.lifetime.start.p0(i64 1, ptr %8) #7
  %17 = load i64, ptr %6, align 8, !tbaa !8
  %18 = load i64, ptr %5, align 8, !tbaa !8
  %19 = call zeroext i8 @lean_usize_dec_lt(i64 noundef %17, i64 noundef %18)
  store i8 %19, ptr %8, align 1, !tbaa !12
  %20 = load i8, ptr %8, align 1, !tbaa !12
  %21 = zext i8 %20 to i32
  %22 = icmp eq i32 %21, 0
  br i1 %22, label %23, label %25

23:                                               ; preds = %16
  %24 = load ptr, ptr %7, align 8, !tbaa !4
  store ptr %24, ptr %4, align 8
  store i32 1, ptr %9, align 4
  br label %43

25:                                               ; preds = %16
  call void @llvm.lifetime.start.p0(i64 8, ptr %10) #7
  call void @llvm.lifetime.start.p0(i64 8, ptr %11) #7
  call void @llvm.lifetime.start.p0(i64 8, ptr %12) #7
  call void @llvm.lifetime.start.p0(i64 8, ptr %13) #7
  call void @llvm.lifetime.start.p0(i64 8, ptr %14) #7
  call void @llvm.lifetime.start.p0(i64 8, ptr %15) #7
  %26 = load ptr, ptr %7, align 8, !tbaa !4
  %27 = load i64, ptr %6, align 8, !tbaa !8
  %28 = call ptr @lean_array_uget(ptr noundef %26, i64 noundef %27)
  store ptr %28, ptr %10, align 8, !tbaa !4
  %29 = call ptr @lean_unsigned_to_nat(i32 noundef 0)
  store ptr %29, ptr %11, align 8, !tbaa !4
  %30 = load ptr, ptr %7, align 8, !tbaa !4
  %31 = load i64, ptr %6, align 8, !tbaa !8
  %32 = load ptr, ptr %11, align 8, !tbaa !4
  %33 = call ptr @lean_array_uset(ptr noundef %30, i64 noundef %31, ptr noundef %32)
  store ptr %33, ptr %12, align 8, !tbaa !4
  store i64 1, ptr %13, align 8, !tbaa !8
  %34 = load i64, ptr %6, align 8, !tbaa !8
  %35 = load i64, ptr %13, align 8, !tbaa !8
  %36 = call i64 @lean_usize_add(i64 noundef %34, i64 noundef %35)
  store i64 %36, ptr %14, align 8, !tbaa !8
  %37 = load ptr, ptr %12, align 8, !tbaa !4
  %38 = load i64, ptr %6, align 8, !tbaa !8
  %39 = load ptr, ptr %10, align 8, !tbaa !4
  %40 = call ptr @lean_array_uset(ptr noundef %37, i64 noundef %38, ptr noundef %39)
  store ptr %40, ptr %15, align 8, !tbaa !4
  %41 = load i64, ptr %14, align 8, !tbaa !8
  store i64 %41, ptr %6, align 8, !tbaa !8
  %42 = load ptr, ptr %15, align 8, !tbaa !4
  store ptr %42, ptr %7, align 8, !tbaa !4
  store i32 2, ptr %9, align 4
  call void @llvm.lifetime.end.p0(i64 8, ptr %15) #7
  call void @llvm.lifetime.end.p0(i64 8, ptr %14) #7
  call void @llvm.lifetime.end.p0(i64 8, ptr %13) #7
  call void @llvm.lifetime.end.p0(i64 8, ptr %12) #7
  call void @llvm.lifetime.end.p0(i64 8, ptr %11) #7
  call void @llvm.lifetime.end.p0(i64 8, ptr %10) #7
  br label %43

43:                                               ; preds = %25, %23
  call void @llvm.lifetime.end.p0(i64 1, ptr %8) #7
  %44 = load i32, ptr %9, align 4
  switch i32 %44, label %47 [
    i32 1, label %45
    i32 2, label %16
  ]

45:                                               ; preds = %43
  %46 = load ptr, ptr %4, align 8
  ret ptr %46

47:                                               ; preds = %43
  unreachable
}